target datalayout = "e-m:e-p270:32:32-p271:32:32-p272:64:64-i64:64-i128:128-f80:128-n8:16:32:64-S128"
target triple = "x86_64-pc-linux-gnu"

%struct.lean_object = type { i32, i32 }

; Function Attrs: alwaysinline nounwind uwtable
define internal void @lean_dec_ref(ptr noundef %0) #3 {
  %2 = alloca ptr, align 8
  store ptr %0, ptr %2, align 8, !tbaa !19
  %3 = load ptr, ptr %2, align 8, !tbaa !19
  %4 = getelementptr inbounds nuw %struct.lean_object, ptr %3, i32 0, i32 0
  %5 = load i32, ptr %4, align 4, !tbaa !25
  %6 = icmp sgt i32 %5, 1
  %7 = zext i1 %6 to i32
  %8 = sext i32 %7 to i64
  %9 = call i64 @llvm.expect.i64(i64 %8, i64 1)
  %10 = icmp ne i64 %9, 0
  br i1 %10, label %11, label %16

11:                                               ; preds = %1
  %12 = load ptr, ptr %2, align 8, !tbaa !19
  %13 = getelementptr inbounds nuw %struct.lean_object, ptr %12, i32 0, i32 0
  %14 = load i32, ptr %13, align 4, !tbaa !25
  %15 = add i32 %14, -1
  store i32 %15, ptr %13, align 4, !tbaa !25
  br label %24

16:                                               ; preds = %1
  %17 = load ptr, ptr %2, align 8, !tbaa !19
  %18 = getelementptr inbounds nuw %struct.lean_object, ptr %17, i32 0, i32 0
  %19 = load i32, ptr %18, align 4, !tbaa !25
  %20 = icmp ne i32 %19, 0
  br i1 %20, label %21, label %23

21:                                               ; preds = %16
  %22 = load ptr, ptr %2, align 8, !tbaa !19
  call void @lean_dec_ref_cold(ptr noundef %22)
  br label %23

23:                                               ; preds = %21, %16
  br label %24

24:                                               ; preds = %23, %11
  ret void
}

; Function Attrs: alwaysinline nounwind uwtable
define internal zeroext i1 @lean_is_scalar(ptr noundef %0) #3 {
  %2 = alloca ptr, align 8
  store ptr %0, ptr %2, align 8, !tbaa !19
  %3 = load ptr, ptr %2, align 8, !tbaa !19
  %4 = ptrtoint ptr %3 to i64
  %5 = and i64 %4, 1
  %6 = icmp eq i64 %5, 1
  ret i1 %6
}

; Function Attrs: inlinehint nounwind uwtable
define internal ptr @lean_box(i64 noundef %0) #0 {
  %2 = alloca i64, align 8
  store i64 %0, ptr %2, align 8, !tbaa !15
  %3 = load i64, ptr %2, align 8, !tbaa !15
  %4 = shl i64 %3, 1
  %5 = or i64 %4, 1
  %6 = inttoptr i64 %5 to ptr
  ret ptr %6
}

; Function Attrs: inlinehint nounwind uwtable
define internal zeroext i16 @lean_uint16_log2(i16 noundef zeroext %0) #0 {
  %2 = alloca i16, align 2
  %3 = alloca i16, align 2
  store i16 %0, ptr %2, align 2, !tbaa !4
  call void @llvm.lifetime.start.p0(i64 2, ptr %3) #7
  store i16 0, ptr %3, align 2, !tbaa !4
  br label %4

4:                                                ; preds = %8, %1
  %5 = load i16, ptr %2, align 2, !tbaa !4
  %6 = zext i16 %5 to i32
  %7 = icmp sge i32 %6, 2
  br i1 %7, label %8, label %15

8:                                                ; preds = %4
  %9 = load i16, ptr %3, align 2, !tbaa !4
  %10 = add i16 %9, 1
  store i16 %10, ptr %3, align 2, !tbaa !4
  %11 = load i16, ptr %2, align 2, !tbaa !4
  %12 = zext i16 %11 to i32
  %13 = sdiv i32 %12, 2
  %14 = trunc i32 %13 to i16
  store i16 %14, ptr %2, align 2, !tbaa !4
  br label %4, !llvm.loop !8

15:                                               ; preds = %4
  %16 = load i16, ptr %3, align 2, !tbaa !4
  call void @llvm.lifetime.end.p0(i64 2, ptr %3) #7
  ret i16 %16
}

; Function Attrs: alwaysinline nounwind uwtable
define internal void @lean_dec(ptr noundef %0) #3 {
  %2 = alloca ptr, align 8
  store ptr %0, ptr %2, align 8, !tbaa !19
  %3 = load ptr, ptr %2, align 8, !tbaa !19
  %4 = call zeroext i1 @lean_is_scalar(ptr noundef %3)
  br i1 %4, label %7, label %5

5:                                                ; preds = %1
  %6 = load ptr, ptr %2, align 8, !tbaa !19
  call void @lean_dec_ref(ptr noundef %6)
  br label %7

7:                                                ; preds = %5, %1
  ret void
}

; Function Attrs: inlinehint nounwind uwtable
define internal i64 @lean_unbox(ptr noundef %0) #0 {
  %2 = alloca ptr, align 8
  store ptr %0, ptr %2, align 8, !tbaa !19
  %3 = load ptr, ptr %2, align 8, !tbaa !19
  %4 = ptrtoint ptr %3 to i64
  %5 = lshr i64 %4, 1
  ret i64 %5
}

; Function Attrs: nounwind uwtable
define ptr @l_UInt16_log2___boxed(ptr noundef %0) #1 {
  %2 = alloca ptr, align 8
  %3 = alloca i16, align 2
  %4 = alloca i16, align 2
  %5 = alloca ptr, align 8
  store ptr %0, ptr %2, align 8, !tbaa !19
  br label %6

6:                                                ; preds = %1
  call void @llvm.lifetime.start.p0(i64 2, ptr %3) #7
  call void @llvm.lifetime.start.p0(i64 2, ptr %4) #7
  call void @llvm.lifetime.start.p0(i64 8, ptr %5) #7
  %7 = load ptr, ptr %2, align 8, !tbaa !19
  %8 = call i64 @lean_unbox(ptr noundef %7)
  %9 = trunc i64 %8 to i16
  store i16 %9, ptr %3, align 2, !tbaa !4
  %10 = load ptr, ptr %2, align 8, !tbaa !19
  call void @lean_dec(ptr noundef %10)
  %11 = load i16, ptr %3, align 2, !tbaa !4
  %12 = call zeroext i16 @lean_uint16_log2(i16 noundef zeroext %11)
  store i16 %12, ptr %4, align 2, !tbaa !4
  %13 = load i16, ptr %4, align 2, !tbaa !4
  %14 = zext i16 %13 to i64
  %15 = call ptr @lean_box(i64 noundef %14)
  store ptr %15, ptr %5, align 8, !tbaa !19
  %16 = load ptr, ptr %5, align 8, !tbaa !19
  call void @llvm.lifetime.end.p0(i64 8, ptr %5) #7
  call void @llvm.lifetime.end.p0(i64 2, ptr %4) #7
  call void @llvm.lifetime.end.p0(i64 2, ptr %3) #7
  ret ptr %16
}