; Function Attrs: nounwind uwtable
define ptr @l_UInt16_log2___boxed(ptr noundef %0) local_unnamed_addr #0 {
  %2 = ptrtoint ptr %0 to i64
  %3 = lshr i64 %2, 1
  %4 = trunc i64 %3 to i16
  %5 = and i64 %2, 1
  %.not = icmp eq i64 %5, 0
  br i1 %.not, label %6, label %lean_dec.exit

6:                                                ; preds = %1
  %7 = load i32, ptr %0, align 4, !tbaa !4
  %8 = icmp sgt i32 %7, 1
  br i1 %8, label %9, label %11, !prof !9

9:                                                ; preds = %6
  %10 = add nsw i32 %7, -1
  store i32 %10, ptr %0, align 4, !tbaa !4
  br label %lean_dec.exit

11:                                               ; preds = %6
  %.not.i = icmp eq i32 %7, 0
  br i1 %.not.i, label %lean_dec.exit, label %12

12:                                               ; preds = %11
  tail call void @lean_dec_ref_cold(ptr noundef nonnull %0) #3
  br label %lean_dec.exit

lean_dec.exit:                                    ; preds = %12, %11, %9, %1
  %13 = icmp ugt i16 %4, 1
  br i1 %13, label %.lr.ph.i, label %lean_uint16_log2.exit

.lr.ph.i:                                         ; preds = %lean_dec.exit, %.lr.ph.i
  %.07.i = phi i16 [ %14, %.lr.ph.i ], [ 0, %lean_dec.exit ]
  %.046.i = phi i16 [ %15, %.lr.ph.i ], [ %4, %lean_dec.exit ]
  %14 = add nuw nsw i16 %.07.i, 1
  %15 = lshr i16 %.046.i, 1
  %16 = icmp ugt i16 %.046.i, 3
  br i1 %16, label %.lr.ph.i, label %lean_uint16_log2.exit.loopexit, !llvm.loop !12

lean_uint16_log2.exit.loopexit:                   ; preds = %.lr.ph.i
  %17 = shl nuw i16 %14, 1
  %18 = or disjoint i16 %17, 1
  %19 = zext i16 %18 to i64
  br label %lean_uint16_log2.exit

lean_uint16_log2.exit:                            ; preds = %lean_uint16_log2.exit.loopexit, %lean_dec.exit
  %.0.lcssa.i = phi i64 [ 1, %lean_dec.exit ], [ %19, %lean_uint16_log2.exit.loopexit ]
  %20 = inttoptr i64 %.0.lcssa.i to ptr
  ret ptr %20
}